target datalayout = "e-m:e-p270:32:32-p271:32:32-p272:64:64-i64:64-i128:128-f80:128-n8:16:32:64-S128"
target triple = "x86_64-pc-linux-gnu"

%struct.Dau_Dsd_t_ = type { i32, i32, i32, i32, i32, i32, i32, i32, ptr, [32 x [8 x i8]], [32 x [32 x i8]], [2000 x i8] }

@Dau_DsdComputeMatches.pMatches = internal global [2000 x i32] zeroinitializer, align 16

; Function Attrs: nounwind uwtable
define ptr @Dau_DsdComputeMatches(ptr noundef %0) #0 {
  %2 = alloca ptr, align 8
  %3 = alloca [12 x i32], align 16
  %4 = alloca i32, align 4
  %5 = alloca i32, align 4
  store ptr %0, ptr %2, align 8, !tbaa !3
  call void @llvm.lifetime.start.p0(i64 48, ptr %3) #9
  call void @llvm.lifetime.start.p0(i64 4, ptr %4) #9
  call void @llvm.lifetime.start.p0(i64 4, ptr %5) #9
  store i32 0, ptr %5, align 4, !tbaa !8
  store i32 0, ptr %4, align 4, !tbaa !8
  br label %6

6:                                                ; preds = %97, %1
  %7 = load ptr, ptr %2, align 8, !tbaa !3
  %8 = load i32, ptr %4, align 4, !tbaa !8
  %9 = sext i32 %8 to i64
  %10 = getelementptr inbounds i8, ptr %7, i64 %9
  %11 = load i8, ptr %10, align 1, !tbaa !10
  %12 = icmp ne i8 %11, 0
  br i1 %12, label %13, label %100

13:                                               ; preds = %6
  %14 = load i32, ptr %4, align 4, !tbaa !8
  %15 = sext i32 %14 to i64
  %16 = getelementptr inbounds [2000 x i32], ptr @Dau_DsdComputeMatches.pMatches, i64 0, i64 %15
  store i32 0, ptr %16, align 4, !tbaa !8
  %17 = load ptr, ptr %2, align 8, !tbaa !3
  %18 = load i32, ptr %4, align 4, !tbaa !8
  %19 = sext i32 %18 to i64
  %20 = getelementptr inbounds i8, ptr %17, i64 %19
  %21 = load i8, ptr %20, align 1, !tbaa !10
  %22 = sext i8 %21 to i32
  %23 = icmp eq i32 %22, 40
  br i1 %23, label %48, label %24

24:                                               ; preds = %13
  %25 = load ptr, ptr %2, align 8, !tbaa !3
  %26 = load i32, ptr %4, align 4, !tbaa !8
  %27 = sext i32 %26 to i64
  %28 = getelementptr inbounds i8, ptr %25, i64 %27
  %29 = load i8, ptr %28, align 1, !tbaa !10
  %30 = sext i8 %29 to i32
  %31 = icmp eq i32 %30, 91
  br i1 %31, label %48, label %32

32:                                               ; preds = %24
  %33 = load ptr, ptr %2, align 8, !tbaa !3
  %34 = load i32, ptr %4, align 4, !tbaa !8
  %35 = sext i32 %34 to i64
  %36 = getelementptr inbounds i8, ptr %33, i64 %35
  %37 = load i8, ptr %36, align 1, !tbaa !10
  %38 = sext i8 %37 to i32
  %39 = icmp eq i32 %38, 60
  br i1 %39, label %48, label %40

40:                                               ; preds = %32
  %41 = load ptr, ptr %2, align 8, !tbaa !3
  %42 = load i32, ptr %4, align 4, !tbaa !8
  %43 = sext i32 %42 to i64
  %44 = getelementptr inbounds i8, ptr %41, i64 %43
  %45 = load i8, ptr %44, align 1, !tbaa !10
  %46 = sext i8 %45 to i32
  %47 = icmp eq i32 %46, 123
  br i1 %47, label %48, label %54

48:                                               ; preds = %40, %32, %24, %13
  %49 = load i32, ptr %4, align 4, !tbaa !8
  %50 = load i32, ptr %5, align 4, !tbaa !8
  %51 = add nsw i32 %50, 1
  store i32 %51, ptr %5, align 4, !tbaa !8
  %52 = sext i32 %50 to i64
  %53 = getelementptr inbounds [12 x i32], ptr %3, i64 0, i64 %52
  store i32 %49, ptr %53, align 4, !tbaa !8
  br label %96

54:                                               ; preds = %40
  %55 = load ptr, ptr %2, align 8, !tbaa !3
  %56 = load i32, ptr %4, align 4, !tbaa !8
  %57 = sext i32 %56 to i64
  %58 = getelementptr inbounds i8, ptr %55, i64 %57
  %59 = load i8, ptr %58, align 1, !tbaa !10
  %60 = sext i8 %59 to i32
  %61 = icmp eq i32 %60, 41
  br i1 %61, label %86, label %62

62:                                               ; preds = %54
  %63 = load ptr, ptr %2, align 8, !tbaa !3
  %64 = load i32, ptr %4, align 4, !tbaa !8
  %65 = sext i32 %64 to i64
  %66 = getelementptr inbounds i8, ptr %63, i64 %65
  %67 = load i8, ptr %66, align 1, !tbaa !10
  %68 = sext i8 %67 to i32
  %69 = icmp eq i32 %68, 93
  br i1 %69, label %86, label %70

70:                                               ; preds = %62
  %71 = load ptr, ptr %2, align 8, !tbaa !3
  %72 = load i32, ptr %4, align 4, !tbaa !8
  %73 = sext i32 %72 to i64
  %74 = getelementptr inbounds i8, ptr %71, i64 %73
  %75 = load i8, ptr %74, align 1, !tbaa !10
  %76 = sext i8 %75 to i32
  %77 = icmp eq i32 %76, 62
  br i1 %77, label %86, label %78

78:                                               ; preds = %70
  %79 = load ptr, ptr %2, align 8, !tbaa !3
  %80 = load i32, ptr %4, align 4, !tbaa !8
  %81 = sext i32 %80 to i64
  %82 = getelementptr inbounds i8, ptr %79, i64 %81
  %83 = load i8, ptr %82, align 1, !tbaa !10
  %84 = sext i8 %83 to i32
  %85 = icmp eq i32 %84, 125
  br i1 %85, label %86, label %95

86:                                               ; preds = %78, %70, %62, %54
  %87 = load i32, ptr %4, align 4, !tbaa !8
  %88 = load i32, ptr %5, align 4, !tbaa !8
  %89 = add nsw i32 %88, -1
  store i32 %89, ptr %5, align 4, !tbaa !8
  %90 = sext i32 %89 to i64
  %91 = getelementptr inbounds [12 x i32], ptr %3, i64 0, i64 %90
  %92 = load i32, ptr %91, align 4, !tbaa !8
  %93 = sext i32 %92 to i64
  %94 = getelementptr inbounds [2000 x i32], ptr @Dau_DsdComputeMatches.pMatches, i64 0, i64 %93
  store i32 %87, ptr %94, align 4, !tbaa !8
  br label %95

95:                                               ; preds = %86, %78
  br label %96

96:                                               ; preds = %95, %48
  br label %97

97:                                               ; preds = %96
  %98 = load i32, ptr %4, align 4, !tbaa !8
  %99 = add nsw i32 %98, 1
  store i32 %99, ptr %4, align 4, !tbaa !8
  br label %6, !llvm.loop !11

100:                                              ; preds = %6
  call void @llvm.lifetime.end.p0(i64 4, ptr %5) #9
  call void @llvm.lifetime.end.p0(i64 4, ptr %4) #9
  call void @llvm.lifetime.end.p0(i64 48, ptr %3) #9
  ret ptr @Dau_DsdComputeMatches.pMatches
}

; Function Attrs: inlinehint nounwind uwtable
define internal i32 @Abc_TtIsConst1(ptr noundef %0, i32 noundef %1) #2 {
  %3 = alloca i32, align 4
  %4 = alloca ptr, align 8
  %5 = alloca i32, align 4
  %6 = alloca i32, align 4
  %7 = alloca i32, align 4
  store ptr %0, ptr %4, align 8, !tbaa !35
  store i32 %1, ptr %5, align 4, !tbaa !8
  call void @llvm.lifetime.start.p0(i64 4, ptr %6) #9
  store i32 0, ptr %6, align 4, !tbaa !8
  br label %8

8:                                                ; preds = %22, %2
  %9 = load i32, ptr %6, align 4, !tbaa !8
  %10 = load i32, ptr %5, align 4, !tbaa !8
  %11 = icmp slt i32 %9, %10
  br i1 %11, label %12, label %25

12:                                               ; preds = %8
  %13 = load ptr, ptr %4, align 8, !tbaa !35
  %14 = load i32, ptr %6, align 4, !tbaa !8
  %15 = sext i32 %14 to i64
  %16 = getelementptr inbounds i64, ptr %13, i64 %15
  %17 = load i64, ptr %16, align 8, !tbaa !33
  %18 = xor i64 %17, -1
  %19 = icmp ne i64 %18, 0
  br i1 %19, label %20, label %21

20:                                               ; preds = %12
  store i32 0, ptr %3, align 4
  store i32 1, ptr %7, align 4
  br label %26

21:                                               ; preds = %12
  br label %22

22:                                               ; preds = %21
  %23 = load i32, ptr %6, align 4, !tbaa !8
  %24 = add nsw i32 %23, 1
  store i32 %24, ptr %6, align 4, !tbaa !8
  br label %8, !llvm.loop !52

25:                                               ; preds = %8
  store i32 1, ptr %3, align 4
  store i32 1, ptr %7, align 4
  br label %26

26:                                               ; preds = %25, %20
  call void @llvm.lifetime.end.p0(i64 4, ptr %6) #9
  %27 = load i32, ptr %3, align 4
  ret i32 %27
}

; Function Attrs: inlinehint nounwind uwtable
define internal i32 @Abc_TtIsConst0(ptr noundef %0, i32 noundef %1) #2 {
  %3 = alloca i32, align 4
  %4 = alloca ptr, align 8
  %5 = alloca i32, align 4
  %6 = alloca i32, align 4
  %7 = alloca i32, align 4
  store ptr %0, ptr %4, align 8, !tbaa !35
  store i32 %1, ptr %5, align 4, !tbaa !8
  call void @llvm.lifetime.start.p0(i64 4, ptr %6) #9
  store i32 0, ptr %6, align 4, !tbaa !8
  br label %8

8:                                                ; preds = %21, %2
  %9 = load i32, ptr %6, align 4, !tbaa !8
  %10 = load i32, ptr %5, align 4, !tbaa !8
  %11 = icmp slt i32 %9, %10
  br i1 %11, label %12, label %24

12:                                               ; preds = %8
  %13 = load ptr, ptr %4, align 8, !tbaa !35
  %14 = load i32, ptr %6, align 4, !tbaa !8
  %15 = sext i32 %14 to i64
  %16 = getelementptr inbounds i64, ptr %13, i64 %15
  %17 = load i64, ptr %16, align 8, !tbaa !33
  %18 = icmp ne i64 %17, 0
  br i1 %18, label %19, label %20

19:                                               ; preds = %12
  store i32 0, ptr %3, align 4
  store i32 1, ptr %7, align 4
  br label %25

20:                                               ; preds = %12
  br label %21

21:                                               ; preds = %20
  %22 = load i32, ptr %6, align 4, !tbaa !8
  %23 = add nsw i32 %22, 1
  store i32 %23, ptr %6, align 4, !tbaa !8
  br label %8, !llvm.loop !51

24:                                               ; preds = %8
  store i32 1, ptr %3, align 4
  store i32 1, ptr %7, align 4
  br label %25

25:                                               ; preds = %24, %19
  call void @llvm.lifetime.end.p0(i64 4, ptr %6) #9
  %26 = load i32, ptr %3, align 4
  ret i32 %26
}

; Function Attrs: inlinehint nounwind uwtable
define internal i32 @Abc_TtWordNum(i32 noundef %0) #2 {
  %2 = alloca i32, align 4
  store i32 %0, ptr %2, align 4, !tbaa !8
  %3 = load i32, ptr %2, align 4, !tbaa !8
  %4 = icmp sle i32 %3, 6
  br i1 %4, label %5, label %6

5:                                                ; preds = %1
  br label %10

6:                                                ; preds = %1
  %7 = load i32, ptr %2, align 4, !tbaa !8
  %8 = sub nsw i32 %7, 6
  %9 = shl i32 1, %8
  br label %10

10:                                               ; preds = %6, %5
  %11 = phi i32 [ 1, %5 ], [ %9, %6 ]
  ret i32 %11
}

; Function Attrs: nounwind uwtable
define i32 @Dau_DsdDecompose(ptr noundef %0, i32 noundef %1, i32 noundef %2, i32 noundef %3, ptr noundef %4) #0 {
  %6 = alloca i32, align 4
  %7 = alloca ptr, align 8
  %8 = alloca i32, align 4
  %9 = alloca i32, align 4
  %10 = alloca i32, align 4
  %11 = alloca ptr, align 8
  %12 = alloca %struct.Dau_Dsd_t_, align 8
  %13 = alloca ptr, align 8
  %14 = alloca i32, align 4
  %15 = alloca i32, align 4
  store ptr %0, ptr %7, align 8, !tbaa !35
  store i32 %1, ptr %8, align 4, !tbaa !8
  store i32 %2, ptr %9, align 4, !tbaa !8
  store i32 %3, ptr %10, align 4, !tbaa !8
  store ptr %4, ptr %11, align 8, !tbaa !3
  call void @llvm.lifetime.start.p0(i64 3320, ptr %12) #9
  call void @llvm.lifetime.start.p0(i64 8, ptr %13) #9
  store ptr %12, ptr %13, align 8, !tbaa !80
  %16 = load i32, ptr %9, align 4, !tbaa !8
  %17 = load ptr, ptr %13, align 8, !tbaa !80
  %18 = getelementptr inbounds nuw %struct.Dau_Dsd_t_, ptr %17, i32 0, i32 6
  store i32 %16, ptr %18, align 8, !tbaa !82
  %19 = load i32, ptr %10, align 4, !tbaa !8
  %20 = load ptr, ptr %13, align 8, !tbaa !80
  %21 = getelementptr inbounds nuw %struct.Dau_Dsd_t_, ptr %20, i32 0, i32 7
  store i32 %19, ptr %21, align 4, !tbaa !84
  %22 = load ptr, ptr %13, align 8, !tbaa !80
  %23 = getelementptr inbounds nuw %struct.Dau_Dsd_t_, ptr %22, i32 0, i32 8
  store ptr null, ptr %23, align 8, !tbaa !85
  %24 = load ptr, ptr %13, align 8, !tbaa !80
  %25 = getelementptr inbounds nuw %struct.Dau_Dsd_t_, ptr %24, i32 0, i32 3
  store i32 0, ptr %25, align 4, !tbaa !86
  %26 = load ptr, ptr %7, align 8, !tbaa !35
  %27 = getelementptr inbounds i64, ptr %26, i64 0
  %28 = load i64, ptr %27, align 8, !tbaa !33
  %29 = and i64 %28, 1
  %30 = icmp eq i64 %29, 0
  br i1 %30, label %31, label %46

31:                                               ; preds = %5
  %32 = load ptr, ptr %7, align 8, !tbaa !35
  %33 = load i32, ptr %8, align 4, !tbaa !8
  %34 = call i32 @Abc_TtWordNum(i32 noundef %33)
  %35 = call i32 @Abc_TtIsConst0(ptr noundef %32, i32 noundef %34)
  %36 = icmp ne i32 %35, 0
  br i1 %36, label %37, label %46

37:                                               ; preds = %31
  %38 = load ptr, ptr %11, align 8, !tbaa !3
  %39 = icmp ne ptr %38, null
  br i1 %39, label %40, label %45

40:                                               ; preds = %37
  %41 = load ptr, ptr %11, align 8, !tbaa !3
  %42 = getelementptr inbounds i8, ptr %41, i64 0
  store i8 48, ptr %42, align 1, !tbaa !10
  %43 = load ptr, ptr %11, align 8, !tbaa !3
  %44 = getelementptr inbounds i8, ptr %43, i64 1
  store i8 0, ptr %44, align 1, !tbaa !10
  br label %45

45:                                               ; preds = %40, %37
  br label %99

46:                                               ; preds = %31, %5
  %47 = load ptr, ptr %7, align 8, !tbaa !35
  %48 = getelementptr inbounds i64, ptr %47, i64 0
  %49 = load i64, ptr %48, align 8, !tbaa !33
  %50 = and i64 %49, 1
  %51 = icmp ne i64 %50, 0
  br i1 %51, label %52, label %67

52:                                               ; preds = %46
  %53 = load ptr, ptr %7, align 8, !tbaa !35
  %54 = load i32, ptr %8, align 4, !tbaa !8
  %55 = call i32 @Abc_TtWordNum(i32 noundef %54)
  %56 = call i32 @Abc_TtIsConst1(ptr noundef %53, i32 noundef %55)
  %57 = icmp ne i32 %56, 0
  br i1 %57, label %58, label %67

58:                                               ; preds = %52
  %59 = load ptr, ptr %11, align 8, !tbaa !3
  %60 = icmp ne ptr %59, null
  br i1 %60, label %61, label %66

61:                                               ; preds = %58
  %62 = load ptr, ptr %11, align 8, !tbaa !3
  %63 = getelementptr inbounds i8, ptr %62, i64 0
  store i8 49, ptr %63, align 1, !tbaa !10
  %64 = load ptr, ptr %11, align 8, !tbaa !3
  %65 = getelementptr inbounds i8, ptr %64, i64 1
  store i8 0, ptr %65, align 1, !tbaa !10
  br label %66

66:                                               ; preds = %61, %58
  br label %98

67:                                               ; preds = %52, %46
  call void @llvm.lifetime.start.p0(i64 4, ptr %14) #9
  %68 = load ptr, ptr %13, align 8, !tbaa !80
  %69 = load ptr, ptr %7, align 8, !tbaa !35
  %70 = load i32, ptr %8, align 4, !tbaa !8
  %71 = call i32 @Dau_DsdDecomposeInt(ptr noundef %68, ptr noundef %69, i32 noundef %70)
  store i32 %71, ptr %14, align 4, !tbaa !8
  %72 = load ptr, ptr %13, align 8, !tbaa !80
  %73 = getelementptr inbounds nuw %struct.Dau_Dsd_t_, ptr %72, i32 0, i32 11
  %74 = getelementptr inbounds [2000 x i8], ptr %73, i64 0, i64 0
  %75 = load ptr, ptr %13, align 8, !tbaa !80
  %76 = getelementptr inbounds nuw %struct.Dau_Dsd_t_, ptr %75, i32 0, i32 11
  %77 = getelementptr inbounds [2000 x i8], ptr %76, i64 0, i64 0
  %78 = call ptr @Dau_DsdComputeMatches(ptr noundef %77)
  call void @Dau_DsdRemoveBraces(ptr noundef %74, ptr noundef %78)
  %79 = load ptr, ptr %11, align 8, !tbaa !3
  %80 = icmp ne ptr %79, null
  br i1 %80, label %81, label %87

81:                                               ; preds = %67
  %82 = load ptr, ptr %11, align 8, !tbaa !3
  %83 = load ptr, ptr %13, align 8, !tbaa !80
  %84 = getelementptr inbounds nuw %struct.Dau_Dsd_t_, ptr %83, i32 0, i32 11
  %85 = getelementptr inbounds [2000 x i8], ptr %84, i64 0, i64 0
  %86 = call ptr @strcpy(ptr noundef %82, ptr noundef %85) #9
  br label %87

87:                                               ; preds = %81, %67
  %88 = load i32, ptr %9, align 4, !tbaa !8
  %89 = icmp ne i32 %88, 0
  br i1 %89, label %90, label %94

90:                                               ; preds = %87
  %91 = load i32, ptr %14, align 4, !tbaa !8
  %92 = icmp eq i32 %91, 2
  br i1 %92, label %93, label %94

93:                                               ; preds = %90
  store i32 -1, ptr %6, align 4
  store i32 1, ptr %15, align 4
  br label %95

94:                                               ; preds = %90, %87
  store i32 0, ptr %15, align 4
  br label %95

95:                                               ; preds = %94, %93
  call void @llvm.lifetime.end.p0(i64 4, ptr %14) #9
  %96 = load i32, ptr %15, align 4
  switch i32 %96, label %103 [
    i32 0, label %97
  ]

97:                                               ; preds = %95
  br label %98

98:                                               ; preds = %97, %66
  br label %99

99:                                               ; preds = %98, %45
  %100 = load ptr, ptr %13, align 8, !tbaa !80
  %101 = getelementptr inbounds nuw %struct.Dau_Dsd_t_, ptr %100, i32 0, i32 3
  %102 = load i32, ptr %101, align 4, !tbaa !86
  store i32 %102, ptr %6, align 4
  store i32 1, ptr %15, align 4
  br label %103

103:                                              ; preds = %99, %95
  call void @llvm.lifetime.end.p0(i64 8, ptr %13) #9
  call void @llvm.lifetime.end.p0(i64 3320, ptr %12) #9
  %104 = load i32, ptr %6, align 4
  ret i32 %104
}