; Function Attrs: nounwind uwtable
define i32 @Dau_DsdDecompose(ptr noundef %0, i32 noundef %1, i32 noundef %2, i32 noundef %3, ptr noundef %4) local_unnamed_addr #3 {
  %6 = alloca [12 x i32], align 16
  %7 = alloca %struct.Dau_Dsd_t_, align 8
  call void @llvm.lifetime.start.p0(i64 3320, ptr nonnull %7) #29
  %8 = getelementptr inbounds nuw i8, ptr %7, i64 24
  store i32 %2, ptr %8, align 8, !tbaa !80
  %9 = getelementptr inbounds nuw i8, ptr %7, i64 28
  store i32 %3, ptr %9, align 4, !tbaa !83
  %10 = getelementptr inbounds nuw i8, ptr %7, i64 32
  store ptr null, ptr %10, align 8, !tbaa !84
  %11 = getelementptr inbounds nuw i8, ptr %7, i64 12
  store i32 0, ptr %11, align 4, !tbaa !85
  %12 = load i64, ptr %0, align 8, !tbaa !29
  %13 = and i64 %12, 1
  %14 = icmp eq i64 %13, 0
  %15 = icmp slt i32 %1, 7
  %16 = add nsw i32 %1, -6
  %17 = shl nuw i32 1, %16
  %18 = select i1 %15, i32 1, i32 %17
  %19 = icmp sgt i32 %18, 0
  br i1 %14, label %20, label %Abc_TtIsConst0.exit.thread55

20:                                               ; preds = %5
  br i1 %19, label %.lr.ph.preheader.i, label %.loopexit

.lr.ph.preheader.i:                               ; preds = %20
  %wide.trip.count.i = zext nneg i32 %18 to i64
  br label %.lr.ph.i

21:                                               ; preds = %.lr.ph.i
  %indvars.iv.next.i = add nuw nsw i64 %indvars.iv.i, 1
  %exitcond.not.i = icmp eq i64 %indvars.iv.next.i, %wide.trip.count.i
  br i1 %exitcond.not.i, label %.loopexit, label %.lr.ph.i, !llvm.loop !41

.lr.ph.i:                                         ; preds = %21, %.lr.ph.preheader.i
  %indvars.iv.i = phi i64 [ 0, %.lr.ph.preheader.i ], [ %indvars.iv.next.i, %21 ]
  %22 = getelementptr inbounds nuw i64, ptr %0, i64 %indvars.iv.i
  %23 = load i64, ptr %22, align 8, !tbaa !29
  %.not.i = icmp eq i64 %23, 0
  br i1 %.not.i, label %21, label %Abc_TtIsConst1.exit

.loopexit:                                        ; preds = %21, %20
  %.not40 = icmp eq ptr %4, null
  br i1 %.not40, label %._crit_edge, label %._crit_edge.sink.split

Abc_TtIsConst0.exit.thread55:                     ; preds = %5
  br i1 %19, label %.lr.ph.preheader.i42, label %.loopexit59

.lr.ph.preheader.i42:                             ; preds = %Abc_TtIsConst0.exit.thread55
  %wide.trip.count.i43 = zext nneg i32 %18 to i64
  br label %.lr.ph.i44

24:                                               ; preds = %.lr.ph.i44
  %indvars.iv.next.i47 = add nuw nsw i64 %indvars.iv.i45, 1
  %exitcond.not.i48 = icmp eq i64 %indvars.iv.next.i47, %wide.trip.count.i43
  br i1 %exitcond.not.i48, label %.loopexit59, label %.lr.ph.i44, !llvm.loop !42

.lr.ph.i44:                                       ; preds = %24, %.lr.ph.preheader.i42
  %indvars.iv.i45 = phi i64 [ 0, %.lr.ph.preheader.i42 ], [ %indvars.iv.next.i47, %24 ]
  %25 = getelementptr inbounds nuw i64, ptr %0, i64 %indvars.iv.i45
  %26 = load i64, ptr %25, align 8, !tbaa !29
  %.not.i46 = icmp eq i64 %26, -1
  br i1 %.not.i46, label %24, label %Abc_TtIsConst1.exit

.loopexit59:                                      ; preds = %24, %Abc_TtIsConst0.exit.thread55
  %.not39 = icmp eq ptr %4, null
  br i1 %.not39, label %._crit_edge, label %._crit_edge.sink.split

Abc_TtIsConst1.exit:                              ; preds = %.lr.ph.i44, %.lr.ph.i
  %27 = call i32 @Dau_DsdDecomposeInt(ptr noundef nonnull %7, ptr noundef nonnull %0, i32 noundef %1)
  %28 = getelementptr inbounds nuw i8, ptr %7, i64 1320
  call void @llvm.lifetime.start.p0(i64 48, ptr nonnull %6) #29
  %29 = load i8, ptr %28, align 8, !tbaa !3
  %.not25.i = icmp eq i8 %29, 0
  br i1 %.not25.i, label %Dau_DsdComputeMatches.exit, label %.lr.ph.i49

.lr.ph.i49:                                       ; preds = %Abc_TtIsConst1.exit, %45
  %30 = phi i8 [ %47, %45 ], [ %29, %Abc_TtIsConst1.exit ]
  %indvars.iv.i50 = phi i64 [ %indvars.iv.next.i51, %45 ], [ 0, %Abc_TtIsConst1.exit ]
  %.027.i = phi i32 [ %.1.i, %45 ], [ 0, %Abc_TtIsConst1.exit ]
  %31 = getelementptr inbounds nuw [2000 x i32], ptr @Dau_DsdComputeMatches.pMatches, i64 0, i64 %indvars.iv.i50
  store i32 0, ptr %31, align 4, !tbaa !6
  switch i8 %30, label %45 [
    i8 40, label %32
    i8 91, label %32
    i8 60, label %32
    i8 123, label %32
    i8 41, label %37
    i8 93, label %37
    i8 62, label %37
    i8 125, label %37
  ]

32:                                               ; preds = %.lr.ph.i49, %.lr.ph.i49, %.lr.ph.i49, %.lr.ph.i49
  %33 = add nsw i32 %.027.i, 1
  %34 = sext i32 %.027.i to i64
  %35 = getelementptr inbounds [12 x i32], ptr %6, i64 0, i64 %34
  %36 = trunc nuw nsw i64 %indvars.iv.i50 to i32
  store i32 %36, ptr %35, align 4, !tbaa !6
  br label %45

37:                                               ; preds = %.lr.ph.i49, %.lr.ph.i49, %.lr.ph.i49, %.lr.ph.i49
  %38 = add nsw i32 %.027.i, -1
  %39 = sext i32 %38 to i64
  %40 = getelementptr inbounds [12 x i32], ptr %6, i64 0, i64 %39
  %41 = load i32, ptr %40, align 4, !tbaa !6
  %42 = sext i32 %41 to i64
  %43 = getelementptr inbounds [2000 x i32], ptr @Dau_DsdComputeMatches.pMatches, i64 0, i64 %42
  %44 = trunc nuw nsw i64 %indvars.iv.i50 to i32
  store i32 %44, ptr %43, align 4, !tbaa !6
  br label %45

45:                                               ; preds = %37, %32, %.lr.ph.i49
  %.1.i = phi i32 [ %33, %32 ], [ %38, %37 ], [ %.027.i, %.lr.ph.i49 ]
  %indvars.iv.next.i51 = add nuw nsw i64 %indvars.iv.i50, 1
  %46 = getelementptr inbounds nuw i8, ptr %28, i64 %indvars.iv.next.i51
  %47 = load i8, ptr %46, align 1, !tbaa !3
  %.not.i52 = icmp eq i8 %47, 0
  br i1 %.not.i52, label %Dau_DsdComputeMatches.exit, label %.lr.ph.i49, !llvm.loop !8

Dau_DsdComputeMatches.exit:                       ; preds = %45, %Abc_TtIsConst1.exit
  call void @llvm.lifetime.end.p0(i64 48, ptr nonnull %6) #29
  call void @Dau_DsdRemoveBraces(ptr noundef nonnull %28, ptr noundef nonnull @Dau_DsdComputeMatches.pMatches) #29
  %.not36 = icmp eq ptr %4, null
  br i1 %.not36, label %50, label %48

48:                                               ; preds = %Dau_DsdComputeMatches.exit
  %49 = call ptr @strcpy(ptr noundef nonnull dereferenceable(1) %4, ptr noundef nonnull dereferenceable(1) %28) #29
  br label %50

50:                                               ; preds = %48, %Dau_DsdComputeMatches.exit
  %51 = icmp eq i32 %2, 0
  %52 = icmp ne i32 %27, 2
  %or.cond.not = select i1 %51, i1 true, i1 %52
  %.pre = load i32, ptr %11, align 4
  %spec.select = select i1 %or.cond.not, i32 %.pre, i32 -1
  br label %._crit_edge

._crit_edge.sink.split:                           ; preds = %.loopexit59, %.loopexit
  %.sink = phi i8 [ 48, %.loopexit ], [ 49, %.loopexit59 ]
  store i8 %.sink, ptr %4, align 1, !tbaa !3
  %53 = getelementptr inbounds nuw i8, ptr %4, i64 1
  store i8 0, ptr %53, align 1, !tbaa !3
  br label %._crit_edge

._crit_edge:                                      ; preds = %50, %._crit_edge.sink.split, %.loopexit, %.loopexit59
  %.1 = phi i32 [ 0, %.loopexit59 ], [ 0, %.loopexit ], [ %spec.select, %50 ], [ 0, %._crit_edge.sink.split ]
  call void @llvm.lifetime.end.p0(i64 3320, ptr nonnull %7) #29
  ret i32 %.1
}